target datalayout = "e-m:e-p270:32:32-p271:32:32-p272:64:64-i64:64-i128:128-f80:128-n8:16:32:64-S128"
target triple = "x86_64-pc-linux-gnu"

%struct.Image = type { ptr, i32, i32, i32, i32 }

; Function Attrs: nounwind uwtable
define zeroext i1 @IsImageValid(ptr noundef byval(%struct.Image) align 8 %0) #0 {
  %2 = alloca i8, align 1
  call void @llvm.lifetime.start.p0(i64 1, ptr %2) #19
  store i8 0, ptr %2, align 1
  %3 = getelementptr inbounds nuw %struct.Image, ptr %0, i32 0, i32 0
  %4 = load ptr, ptr %3, align 8
  %5 = icmp ne ptr %4, null
  br i1 %5, label %6, label %23

6:                                                ; preds = %1
  %7 = getelementptr inbounds nuw %struct.Image, ptr %0, i32 0, i32 1
  %8 = load i32, ptr %7, align 8
  %9 = icmp sgt i32 %8, 0
  br i1 %9, label %10, label %23

10:                                               ; preds = %6
  %11 = getelementptr inbounds nuw %struct.Image, ptr %0, i32 0, i32 2
  %12 = load i32, ptr %11, align 4
  %13 = icmp sgt i32 %12, 0
  br i1 %13, label %14, label %23

14:                                               ; preds = %10
  %15 = getelementptr inbounds nuw %struct.Image, ptr %0, i32 0, i32 4
  %16 = load i32, ptr %15, align 4
  %17 = icmp sgt i32 %16, 0
  br i1 %17, label %18, label %23

18:                                               ; preds = %14
  %19 = getelementptr inbounds nuw %struct.Image, ptr %0, i32 0, i32 3
  %20 = load i32, ptr %19, align 8
  %21 = icmp sgt i32 %20, 0
  br i1 %21, label %22, label %23

22:                                               ; preds = %18
  store i8 1, ptr %2, align 1
  br label %23

23:                                               ; preds = %22, %18, %14, %10, %6, %1
  %24 = load i8, ptr %2, align 1, !range !3, !noundef !4
  %25 = trunc i8 %24 to i1
  call void @llvm.lifetime.end.p0(i64 1, ptr %2) #19
  ret i1 %25
}