; Function Attrs: mustprogress nofree norecurse nosync nounwind willreturn memory(argmem: read) uwtable
define zeroext i1 @IsImageValid(ptr noundef readonly byval(%struct.Image) align 8 captures(none) %0) local_unnamed_addr #26 {
  %2 = load ptr, ptr %0, align 8
  %3 = icmp ne ptr %2, null
  %4 = getelementptr inbounds nuw i8, ptr %0, i64 8
  %5 = load i32, ptr %4, align 8
  %6 = icmp sgt i32 %5, 0
  %or.cond = select i1 %3, i1 %6, i1 false
  %7 = getelementptr inbounds nuw i8, ptr %0, i64 12
  %8 = load i32, ptr %7, align 4
  %9 = icmp sgt i32 %8, 0
  %or.cond5 = select i1 %or.cond, i1 %9, i1 false
  %10 = getelementptr inbounds nuw i8, ptr %0, i64 20
  %11 = load i32, ptr %10, align 4
  %12 = icmp sgt i32 %11, 0
  %or.cond8 = select i1 %or.cond5, i1 %12, i1 false
  %13 = getelementptr inbounds nuw i8, ptr %0, i64 16
  %14 = load i32, ptr %13, align 8
  %15 = icmp sgt i32 %14, 0
  %or.cond11 = select i1 %or.cond8, i1 %15, i1 false
  ret i1 %or.cond11
}